target datalayout = "e-m:e-p270:32:32-p271:32:32-p272:64:64-i64:64-i128:128-f80:128-n8:16:32:64-S128"
target triple = "x86_64-pc-linux-gnu"

%struct.DdManager = type { %struct.DdNode, ptr, ptr, ptr, ptr, ptr, ptr, ptr, i32, i32, double, double, double, i32, i32, i32, i32, i32, i32, ptr, ptr, %struct.DdSubtable, i32, i32, i32, i32, i32, i32, i32, double, i32, i32, i32, ptr, i64, double, i32, ptr, ptr, ptr, ptr, ptr, ptr, ptr, i32, ptr, ptr, ptr, ptr, ptr, ptr, i32, i32, i32, double, i32, i32, i32, i32, double, double, i32, i32, i32, i32, i32, i32, i32, i32, i32, ptr, ptr, i32, i32, i32, i32, i32, i32, ptr, ptr, ptr, ptr, ptr, ptr, ptr, ptr, i32, i64, i64, i64, i32, i64, i64, double, double, double, double, double, double, i32, ptr, ptr, i64 }
%struct.DdNode = type { i32, i32, ptr, %union.anon, i64 }
%union.anon = type { %struct.DdChildren }
%struct.DdChildren = type { ptr, ptr }
%struct.DdSubtable = type { ptr, i32, i32, i32, i32, i32, i32, i32, i32, i32, i32, i32 }

; Function Attrs: nounwind uwtable
define ptr @Cudd_addDivide(ptr noundef %0, ptr noundef %1, ptr noundef %2) #0 {
  %4 = alloca ptr, align 8
  %5 = alloca ptr, align 8
  %6 = alloca ptr, align 8
  %7 = alloca ptr, align 8
  %8 = alloca ptr, align 8
  %9 = alloca ptr, align 8
  %10 = alloca ptr, align 8
  %11 = alloca double, align 8
  %12 = alloca i32, align 4
  store ptr %0, ptr %5, align 8, !tbaa !3
  store ptr %1, ptr %6, align 8, !tbaa !35
  store ptr %2, ptr %7, align 8, !tbaa !35
  call void @llvm.lifetime.start.p0(i64 8, ptr %8) #4
  call void @llvm.lifetime.start.p0(i64 8, ptr %9) #4
  call void @llvm.lifetime.start.p0(i64 8, ptr %10) #4
  call void @llvm.lifetime.start.p0(i64 8, ptr %11) #4
  %13 = load ptr, ptr %6, align 8, !tbaa !35
  %14 = load ptr, ptr %13, align 8, !tbaa !9
  store ptr %14, ptr %9, align 8, !tbaa !9
  %15 = load ptr, ptr %7, align 8, !tbaa !35
  %16 = load ptr, ptr %15, align 8, !tbaa !9
  store ptr %16, ptr %10, align 8, !tbaa !9
  %17 = load ptr, ptr %9, align 8, !tbaa !9
  %18 = load ptr, ptr %5, align 8, !tbaa !3
  %19 = getelementptr inbounds nuw %struct.DdManager, ptr %18, i32 0, i32 2
  %20 = load ptr, ptr %19, align 8, !tbaa !36
  %21 = icmp eq ptr %17, %20
  br i1 %21, label %22, label %26

22:                                               ; preds = %3
  %23 = load ptr, ptr %5, align 8, !tbaa !3
  %24 = getelementptr inbounds nuw %struct.DdManager, ptr %23, i32 0, i32 2
  %25 = load ptr, ptr %24, align 8, !tbaa !36
  store ptr %25, ptr %4, align 8
  store i32 1, ptr %12, align 4
  br label %57

26:                                               ; preds = %3
  %27 = load ptr, ptr %10, align 8, !tbaa !9
  %28 = load ptr, ptr %5, align 8, !tbaa !3
  %29 = getelementptr inbounds nuw %struct.DdManager, ptr %28, i32 0, i32 1
  %30 = load ptr, ptr %29, align 8, !tbaa !38
  %31 = icmp eq ptr %27, %30
  br i1 %31, label %32, label %34

32:                                               ; preds = %26
  %33 = load ptr, ptr %9, align 8, !tbaa !9
  store ptr %33, ptr %4, align 8
  store i32 1, ptr %12, align 4
  br label %57

34:                                               ; preds = %26
  %35 = load ptr, ptr %9, align 8, !tbaa !9
  %36 = getelementptr inbounds nuw %struct.DdNode, ptr %35, i32 0, i32 0
  %37 = load i32, ptr %36, align 8, !tbaa !30
  %38 = icmp eq i32 %37, 2147483647
  br i1 %38, label %39, label %56

39:                                               ; preds = %34
  %40 = load ptr, ptr %10, align 8, !tbaa !9
  %41 = getelementptr inbounds nuw %struct.DdNode, ptr %40, i32 0, i32 0
  %42 = load i32, ptr %41, align 8, !tbaa !30
  %43 = icmp eq i32 %42, 2147483647
  br i1 %43, label %44, label %56

44:                                               ; preds = %39
  %45 = load ptr, ptr %9, align 8, !tbaa !9
  %46 = getelementptr inbounds nuw %struct.DdNode, ptr %45, i32 0, i32 3
  %47 = load double, ptr %46, align 8, !tbaa !33
  %48 = load ptr, ptr %10, align 8, !tbaa !9
  %49 = getelementptr inbounds nuw %struct.DdNode, ptr %48, i32 0, i32 3
  %50 = load double, ptr %49, align 8, !tbaa !33
  %51 = fdiv double %47, %50
  store double %51, ptr %11, align 8, !tbaa !37
  %52 = load ptr, ptr %5, align 8, !tbaa !3
  %53 = load double, ptr %11, align 8, !tbaa !37
  %54 = call ptr @cuddUniqueConst(ptr noundef %52, double noundef %53)
  store ptr %54, ptr %8, align 8, !tbaa !9
  %55 = load ptr, ptr %8, align 8, !tbaa !9
  store ptr %55, ptr %4, align 8
  store i32 1, ptr %12, align 4
  br label %57

56:                                               ; preds = %39, %34
  store ptr null, ptr %4, align 8
  store i32 1, ptr %12, align 4
  br label %57

57:                                               ; preds = %56, %44, %32, %22
  call void @llvm.lifetime.end.p0(i64 8, ptr %11) #4
  call void @llvm.lifetime.end.p0(i64 8, ptr %10) #4
  call void @llvm.lifetime.end.p0(i64 8, ptr %9) #4
  call void @llvm.lifetime.end.p0(i64 8, ptr %8) #4
  %58 = load ptr, ptr %4, align 8
  ret ptr %58
}