; Function Attrs: nounwind uwtable
define ptr @Cudd_addDivide(ptr noundef %0, ptr noundef readonly captures(none) %1, ptr noundef readonly captures(none) %2) local_unnamed_addr #0 {
  %4 = load ptr, ptr %1, align 8, !tbaa !26
  %5 = load ptr, ptr %2, align 8, !tbaa !26
  %6 = getelementptr inbounds nuw i8, ptr %0, i64 48
  %7 = load ptr, ptr %6, align 8, !tbaa !32
  %8 = icmp eq ptr %4, %7
  br i1 %8, label %26, label %9

9:                                                ; preds = %3
  %10 = getelementptr inbounds nuw i8, ptr %0, i64 40
  %11 = load ptr, ptr %10, align 8, !tbaa !33
  %12 = icmp eq ptr %5, %11
  br i1 %12, label %26, label %13

13:                                               ; preds = %9
  %14 = load i32, ptr %4, align 8, !tbaa !27
  %15 = icmp eq i32 %14, 2147483647
  br i1 %15, label %16, label %26

16:                                               ; preds = %13
  %17 = load i32, ptr %5, align 8, !tbaa !27
  %18 = icmp eq i32 %17, 2147483647
  br i1 %18, label %19, label %26

19:                                               ; preds = %16
  %20 = getelementptr inbounds nuw i8, ptr %4, i64 16
  %21 = load double, ptr %20, align 8, !tbaa !30
  %22 = getelementptr inbounds nuw i8, ptr %5, i64 16
  %23 = load double, ptr %22, align 8, !tbaa !30
  %24 = fdiv double %21, %23
  %25 = tail call ptr @cuddUniqueConst(ptr noundef nonnull %0, double noundef %24) #5
  br label %26

26:                                               ; preds = %13, %16, %9, %3, %19
  %.0 = phi ptr [ %25, %19 ], [ %7, %3 ], [ %4, %9 ], [ null, %16 ], [ null, %13 ]
  ret ptr %.0
}